target datalayout = "e-m:e-p270:32:32-p271:32:32-p272:64:64-i64:64-i128:128-f80:128-n8:16:32:64-S128"
target triple = "x86_64-pc-linux-gnu"

; Function Attrs: nounwind uwtable
define ptr @stb_vorbis_open_file(ptr noundef %0, i32 noundef %1, ptr noundef %2, ptr noundef %3) #0 {
  %5 = alloca ptr, align 8
  %6 = alloca i32, align 4
  %7 = alloca ptr, align 8
  %8 = alloca ptr, align 8
  %9 = alloca i32, align 4
  %10 = alloca i32, align 4
  store ptr %0, ptr %5, align 8, !tbaa !312
  store i32 %1, ptr %6, align 4, !tbaa !8
  store ptr %2, ptr %7, align 8, !tbaa !33
  store ptr %3, ptr %8, align 8, !tbaa !18
  call void @llvm.lifetime.start.p0(i64 4, ptr %9) #11
  call void @llvm.lifetime.start.p0(i64 4, ptr %10) #11
  %11 = load ptr, ptr %5, align 8, !tbaa !312
  %12 = call i64 @ftell(ptr noundef %11)
  %13 = trunc i64 %12 to i32
  store i32 %13, ptr %10, align 4, !tbaa !8
  %14 = load ptr, ptr %5, align 8, !tbaa !312
  %15 = call i32 @fseek(ptr noundef %14, i64 noundef 0, i32 noundef 2)
  %16 = load ptr, ptr %5, align 8, !tbaa !312
  %17 = call i64 @ftell(ptr noundef %16)
  %18 = load i32, ptr %10, align 4, !tbaa !8
  %19 = zext i32 %18 to i64
  %20 = sub nsw i64 %17, %19
  %21 = trunc i64 %20 to i32
  store i32 %21, ptr %9, align 4, !tbaa !8
  %22 = load ptr, ptr %5, align 8, !tbaa !312
  %23 = load i32, ptr %10, align 4, !tbaa !8
  %24 = zext i32 %23 to i64
  %25 = call i32 @fseek(ptr noundef %22, i64 noundef %24, i32 noundef 0)
  %26 = load ptr, ptr %5, align 8, !tbaa !312
  %27 = load i32, ptr %6, align 4, !tbaa !8
  %28 = load ptr, ptr %7, align 8, !tbaa !33
  %29 = load ptr, ptr %8, align 8, !tbaa !18
  %30 = load i32, ptr %9, align 4, !tbaa !8
  %31 = call ptr @stb_vorbis_open_file_section(ptr noundef %26, i32 noundef %27, ptr noundef %28, ptr noundef %29, i32 noundef %30)
  call void @llvm.lifetime.end.p0(i64 4, ptr %10) #11
  call void @llvm.lifetime.end.p0(i64 4, ptr %9) #11
  ret ptr %31
}