; Function Attrs: nounwind uwtable
define ptr @stb_vorbis_open_file(ptr noundef %0, i32 noundef %1, ptr noundef captures(address_is_null) %2, ptr noundef captures(address_is_null) %3) local_unnamed_addr #29 {
  %5 = tail call i64 @ftell(ptr noundef %0)
  %6 = tail call i32 @fseek(ptr noundef %0, i64 noundef 0, i32 noundef 2)
  %7 = tail call i64 @ftell(ptr noundef %0)
  %8 = and i64 %5, 4294967295
  %9 = sub i64 %7, %5
  %10 = trunc i64 %9 to i32
  %11 = tail call i32 @fseek(ptr noundef %0, i64 noundef %8, i32 noundef 0)
  %12 = tail call ptr @stb_vorbis_open_file_section(ptr noundef %0, i32 noundef %1, ptr noundef %2, ptr noundef %3, i32 noundef %10)
  ret ptr %12
}